; Function Attrs: mustprogress nounwind uwtable
define noundef zeroext i1 @_ZNK10open_spiel23TrackingVectorAllocator12IsNameUniqueEN4absl7debian211string_viewE(ptr noundef nonnull readonly align 8 captures(none) dereferenceable(96) %0, ptr readonly captures(none) %1, i64 %2) local_unnamed_addr #5 align 2 personality ptr @__gxx_personality_v0 {
  %4 = getelementptr inbounds nuw i8, ptr %0, i64 32
  %5 = load ptr, ptr %4, align 8
  %6 = getelementptr inbounds nuw i8, ptr %0, i64 40
  %7 = load ptr, ptr %6, align 8
  %.not13 = icmp eq ptr %5, %7
  br i1 %.not13, label %_ZN4absl7debian2eqENS0_11string_viewES1_.exit.thread, label %.lr.ph.preheader

.lr.ph.preheader:                                 ; preds = %3
  %8 = icmp eq i64 %2, 0
  br label %.lr.ph

.lr.ph:                                           ; preds = %.lr.ph.preheader, %_ZN4absl7debian2eqENS0_11string_viewES1_.exit.thread11
  %.sroa.08.014 = phi ptr [ %16, %_ZN4absl7debian2eqENS0_11string_viewES1_.exit.thread11 ], [ %5, %.lr.ph.preheader ]
  %9 = tail call noundef ptr @_ZNKSt7__cxx1112basic_stringIcSt11char_traitsIcESaIcEE4dataEv(ptr noundef nonnull align 8 dereferenceable(32) %.sroa.08.014) #26
  %10 = tail call noundef i64 @_ZNKSt7__cxx1112basic_stringIcSt11char_traitsIcESaIcEE4sizeEv(ptr noundef nonnull align 8 dereferenceable(32) %.sroa.08.014) #26
  %11 = icmp sgt i64 %10, -1
  br i1 %11, label %_ZN4absl7debian211string_viewC2ISaIcEEERKNSt7__cxx1112basic_stringIcSt11char_traitsIcET_EE.exit, label %12

12:                                               ; preds = %.lr.ph
  tail call void @llvm.trap()
  unreachable

_ZN4absl7debian211string_viewC2ISaIcEEERKNSt7__cxx1112basic_stringIcSt11char_traitsIcET_EE.exit: ; preds = %.lr.ph
  %13 = icmp eq i64 %10, %2
  br i1 %13, label %14, label %_ZN4absl7debian2eqENS0_11string_viewES1_.exit.thread11

14:                                               ; preds = %_ZN4absl7debian211string_viewC2ISaIcEEERKNSt7__cxx1112basic_stringIcSt11char_traitsIcET_EE.exit
  br i1 %8, label %_ZN4absl7debian2eqENS0_11string_viewES1_.exit.thread, label %_ZN4absl7debian2eqENS0_11string_viewES1_.exit

_ZN4absl7debian2eqENS0_11string_viewES1_.exit:    ; preds = %14
  %bcmp.i = tail call i32 @bcmp(ptr %9, ptr %1, i64 %2)
  %15 = icmp eq i32 %bcmp.i, 0
  br i1 %15, label %_ZN4absl7debian2eqENS0_11string_viewES1_.exit.thread, label %_ZN4absl7debian2eqENS0_11string_viewES1_.exit.thread11

_ZN4absl7debian2eqENS0_11string_viewES1_.exit.thread11: ; preds = %_ZN4absl7debian211string_viewC2ISaIcEEERKNSt7__cxx1112basic_stringIcSt11char_traitsIcET_EE.exit, %_ZN4absl7debian2eqENS0_11string_viewES1_.exit
  %16 = getelementptr inbounds nuw i8, ptr %.sroa.08.014, i64 56
  %.not = icmp eq ptr %16, %7
  br i1 %.not, label %_ZN4absl7debian2eqENS0_11string_viewES1_.exit.thread, label %.lr.ph

_ZN4absl7debian2eqENS0_11string_viewES1_.exit.thread: ; preds = %_ZN4absl7debian2eqENS0_11string_viewES1_.exit, %_ZN4absl7debian2eqENS0_11string_viewES1_.exit.thread11, %14, %3
  %.not.lcssa = phi i1 [ true, %3 ], [ false, %14 ], [ true, %_ZN4absl7debian2eqENS0_11string_viewES1_.exit.thread11 ], [ false, %_ZN4absl7debian2eqENS0_11string_viewES1_.exit ]
  ret i1 %.not.lcssa
}